; Function Attrs: mustprogress nofree nounwind uwtable
define noundef zeroext i1 @_ZN14VrmlTranslator6Buffer7CanSeekEv(ptr nocapture noundef nonnull readonly align 8 dereferenceable(49) %0) local_unnamed_addr #1 align 2 {
  %2 = getelementptr inbounds i8, ptr %0, i64 40
  %3 = load ptr, ptr %2, align 8
  %.not = icmp eq ptr %3, null
  br i1 %.not, label %7, label %4

4:                                                ; preds = %1
  %5 = tail call i64 @ftell(ptr noundef nonnull %3)
  %6 = icmp ne i64 %5, -1
  br label %7

7:                                                ; preds = %4, %1
  %8 = phi i1 [ false, %1 ], [ %6, %4 ]
  ret i1 %8
}